target datalayout = "e-m:e-p270:32:32-p271:32:32-p272:64:64-i64:64-i128:128-f80:128-n8:16:32:64-S128"
target triple = "x86_64-pc-linux-gnu"

%struct.jv = type { i8, i8, i16, i32, %union.anon }
%union.anon = type { ptr }
%struct.sort_entry = type { %struct.jv, %struct.jv, i32 }

; Function Attrs: nounwind uwtable
define internal ptr @sort_items(i64 %0, ptr %1, i64 %2, ptr %3) #0 {
  %5 = alloca %struct.jv, align 8
  %6 = alloca %struct.jv, align 8
  %7 = alloca i32, align 4
  %8 = alloca %struct.jv, align 8
  %9 = alloca ptr, align 8
  %10 = alloca i32, align 4
  %11 = alloca %struct.jv, align 8
  %12 = alloca %struct.jv, align 8
  %13 = alloca %struct.jv, align 8
  %14 = alloca %struct.jv, align 8
  %15 = getelementptr inbounds nuw { i64, ptr }, ptr %5, i32 0, i32 0
  store i64 %0, ptr %15, align 8
  %16 = getelementptr inbounds nuw { i64, ptr }, ptr %5, i32 0, i32 1
  store ptr %1, ptr %16, align 8
  %17 = getelementptr inbounds nuw { i64, ptr }, ptr %6, i32 0, i32 0
  store i64 %2, ptr %17, align 8
  %18 = getelementptr inbounds nuw { i64, ptr }, ptr %6, i32 0, i32 1
  store ptr %3, ptr %18, align 8
  call void @llvm.lifetime.start.p0(i64 4, ptr %7) #6
  %19 = getelementptr inbounds nuw { i64, ptr }, ptr %5, i32 0, i32 0
  %20 = load i64, ptr %19, align 8
  %21 = getelementptr inbounds nuw { i64, ptr }, ptr %5, i32 0, i32 1
  %22 = load ptr, ptr %21, align 8
  %23 = call { i64, ptr } @jv_copy(i64 %20, ptr %22)
  %24 = getelementptr inbounds nuw { i64, ptr }, ptr %8, i32 0, i32 0
  %25 = extractvalue { i64, ptr } %23, 0
  store i64 %25, ptr %24, align 8
  %26 = getelementptr inbounds nuw { i64, ptr }, ptr %8, i32 0, i32 1
  %27 = extractvalue { i64, ptr } %23, 1
  store ptr %27, ptr %26, align 8
  %28 = getelementptr inbounds nuw { i64, ptr }, ptr %8, i32 0, i32 0
  %29 = load i64, ptr %28, align 8
  %30 = getelementptr inbounds nuw { i64, ptr }, ptr %8, i32 0, i32 1
  %31 = load ptr, ptr %30, align 8
  %32 = call i32 @jv_array_length(i64 %29, ptr %31)
  store i32 %32, ptr %7, align 4, !tbaa !10
  call void @llvm.lifetime.start.p0(i64 8, ptr %9) #6
  %33 = load i32, ptr %7, align 4, !tbaa !10
  %34 = sext i32 %33 to i64
  %35 = call ptr @jv_mem_calloc(i64 noundef %34, i64 noundef 40)
  store ptr %35, ptr %9, align 8, !tbaa !23
  call void @llvm.lifetime.start.p0(i64 4, ptr %10) #6
  store i32 0, ptr %10, align 4, !tbaa !10
  br label %36

36:                                               ; preds = %96, %4
  %37 = load i32, ptr %10, align 4, !tbaa !10
  %38 = load i32, ptr %7, align 4, !tbaa !10
  %39 = icmp slt i32 %37, %38
  br i1 %39, label %41, label %40

40:                                               ; preds = %36
  call void @llvm.lifetime.end.p0(i64 4, ptr %10) #6
  br label %99

41:                                               ; preds = %36
  %42 = load ptr, ptr %9, align 8, !tbaa !23
  %43 = load i32, ptr %10, align 4, !tbaa !10
  %44 = sext i32 %43 to i64
  %45 = getelementptr inbounds %struct.sort_entry, ptr %42, i64 %44
  %46 = getelementptr inbounds nuw %struct.sort_entry, ptr %45, i32 0, i32 0
  call void @llvm.lifetime.start.p0(i64 16, ptr %11) #6
  %47 = getelementptr inbounds nuw { i64, ptr }, ptr %5, i32 0, i32 0
  %48 = load i64, ptr %47, align 8
  %49 = getelementptr inbounds nuw { i64, ptr }, ptr %5, i32 0, i32 1
  %50 = load ptr, ptr %49, align 8
  %51 = call { i64, ptr } @jv_copy(i64 %48, ptr %50)
  %52 = getelementptr inbounds nuw { i64, ptr }, ptr %12, i32 0, i32 0
  %53 = extractvalue { i64, ptr } %51, 0
  store i64 %53, ptr %52, align 8
  %54 = getelementptr inbounds nuw { i64, ptr }, ptr %12, i32 0, i32 1
  %55 = extractvalue { i64, ptr } %51, 1
  store ptr %55, ptr %54, align 8
  %56 = load i32, ptr %10, align 4, !tbaa !10
  %57 = getelementptr inbounds nuw { i64, ptr }, ptr %12, i32 0, i32 0
  %58 = load i64, ptr %57, align 8
  %59 = getelementptr inbounds nuw { i64, ptr }, ptr %12, i32 0, i32 1
  %60 = load ptr, ptr %59, align 8
  %61 = call { i64, ptr } @jv_array_get(i64 %58, ptr %60, i32 noundef %56)
  %62 = getelementptr inbounds nuw { i64, ptr }, ptr %11, i32 0, i32 0
  %63 = extractvalue { i64, ptr } %61, 0
  store i64 %63, ptr %62, align 8
  %64 = getelementptr inbounds nuw { i64, ptr }, ptr %11, i32 0, i32 1
  %65 = extractvalue { i64, ptr } %61, 1
  store ptr %65, ptr %64, align 8
  call void @llvm.memcpy.p0.p0.i64(ptr align 8 %46, ptr align 8 %11, i64 16, i1 false), !tbaa.struct !4
  call void @llvm.lifetime.end.p0(i64 16, ptr %11) #6
  %66 = load ptr, ptr %9, align 8, !tbaa !23
  %67 = load i32, ptr %10, align 4, !tbaa !10
  %68 = sext i32 %67 to i64
  %69 = getelementptr inbounds %struct.sort_entry, ptr %66, i64 %68
  %70 = getelementptr inbounds nuw %struct.sort_entry, ptr %69, i32 0, i32 1
  call void @llvm.lifetime.start.p0(i64 16, ptr %13) #6
  %71 = getelementptr inbounds nuw { i64, ptr }, ptr %6, i32 0, i32 0
  %72 = load i64, ptr %71, align 8
  %73 = getelementptr inbounds nuw { i64, ptr }, ptr %6, i32 0, i32 1
  %74 = load ptr, ptr %73, align 8
  %75 = call { i64, ptr } @jv_copy(i64 %72, ptr %74)
  %76 = getelementptr inbounds nuw { i64, ptr }, ptr %14, i32 0, i32 0
  %77 = extractvalue { i64, ptr } %75, 0
  store i64 %77, ptr %76, align 8
  %78 = getelementptr inbounds nuw { i64, ptr }, ptr %14, i32 0, i32 1
  %79 = extractvalue { i64, ptr } %75, 1
  store ptr %79, ptr %78, align 8
  %80 = load i32, ptr %10, align 4, !tbaa !10
  %81 = getelementptr inbounds nuw { i64, ptr }, ptr %14, i32 0, i32 0
  %82 = load i64, ptr %81, align 8
  %83 = getelementptr inbounds nuw { i64, ptr }, ptr %14, i32 0, i32 1
  %84 = load ptr, ptr %83, align 8
  %85 = call { i64, ptr } @jv_array_get(i64 %82, ptr %84, i32 noundef %80)
  %86 = getelementptr inbounds nuw { i64, ptr }, ptr %13, i32 0, i32 0
  %87 = extractvalue { i64, ptr } %85, 0
  store i64 %87, ptr %86, align 8
  %88 = getelementptr inbounds nuw { i64, ptr }, ptr %13, i32 0, i32 1
  %89 = extractvalue { i64, ptr } %85, 1
  store ptr %89, ptr %88, align 8
  call void @llvm.memcpy.p0.p0.i64(ptr align 8 %70, ptr align 8 %13, i64 16, i1 false), !tbaa.struct !4
  call void @llvm.lifetime.end.p0(i64 16, ptr %13) #6
  %90 = load i32, ptr %10, align 4, !tbaa !10
  %91 = load ptr, ptr %9, align 8, !tbaa !23
  %92 = load i32, ptr %10, align 4, !tbaa !10
  %93 = sext i32 %92 to i64
  %94 = getelementptr inbounds %struct.sort_entry, ptr %91, i64 %93
  %95 = getelementptr inbounds nuw %struct.sort_entry, ptr %94, i32 0, i32 2
  store i32 %90, ptr %95, align 8, !tbaa !38
  br label %96

96:                                               ; preds = %41
  %97 = load i32, ptr %10, align 4, !tbaa !10
  %98 = add nsw i32 %97, 1
  store i32 %98, ptr %10, align 4, !tbaa !10
  br label %36, !llvm.loop !41

99:                                               ; preds = %40
  %100 = getelementptr inbounds nuw { i64, ptr }, ptr %5, i32 0, i32 0
  %101 = load i64, ptr %100, align 8
  %102 = getelementptr inbounds nuw { i64, ptr }, ptr %5, i32 0, i32 1
  %103 = load ptr, ptr %102, align 8
  call void @jv_free(i64 %101, ptr %103)
  %104 = getelementptr inbounds nuw { i64, ptr }, ptr %6, i32 0, i32 0
  %105 = load i64, ptr %104, align 8
  %106 = getelementptr inbounds nuw { i64, ptr }, ptr %6, i32 0, i32 1
  %107 = load ptr, ptr %106, align 8
  call void @jv_free(i64 %105, ptr %107)
  %108 = load ptr, ptr %9, align 8, !tbaa !23
  %109 = load i32, ptr %7, align 4, !tbaa !10
  %110 = sext i32 %109 to i64
  call void @qsort(ptr noundef %108, i64 noundef %110, i64 noundef 40, ptr noundef @sort_cmp)
  %111 = load ptr, ptr %9, align 8, !tbaa !23
  call void @llvm.lifetime.end.p0(i64 8, ptr %9) #6
  call void @llvm.lifetime.end.p0(i64 4, ptr %7) #6
  ret ptr %111
}