; Function Attrs: nounwind uwtable
define internal fastcc ptr @sort_items(i64 %0, ptr %1, i64 %2, ptr %3) unnamed_addr #0 {
  %5 = tail call { i64, ptr } @jv_copy(i64 %0, ptr %1) #6
  %6 = extractvalue { i64, ptr } %5, 0
  %7 = extractvalue { i64, ptr } %5, 1
  %8 = tail call i32 @jv_array_length(i64 %6, ptr %7) #6
  %9 = sext i32 %8 to i64
  %10 = tail call ptr @jv_mem_calloc(i64 noundef %9, i64 noundef 40) #6
  %11 = icmp sgt i32 %8, 0
  br i1 %11, label %.lr.ph.preheader, label %._crit_edge

.lr.ph.preheader:                                 ; preds = %4
  %wide.trip.count = zext nneg i32 %8 to i64
  br label %.lr.ph

._crit_edge:                                      ; preds = %.lr.ph, %4
  tail call void @jv_free(i64 %0, ptr %1) #6
  tail call void @jv_free(i64 %2, ptr %3) #6
  tail call void @qsort(ptr noundef %10, i64 noundef %9, i64 noundef 40, ptr noundef nonnull @sort_cmp) #6
  ret ptr %10

.lr.ph:                                           ; preds = %.lr.ph.preheader, %.lr.ph
  %indvars.iv = phi i64 [ 0, %.lr.ph.preheader ], [ %indvars.iv.next, %.lr.ph ]
  %12 = getelementptr inbounds nuw %struct.sort_entry, ptr %10, i64 %indvars.iv
  %13 = tail call { i64, ptr } @jv_copy(i64 %0, ptr %1) #6
  %14 = extractvalue { i64, ptr } %13, 0
  %15 = extractvalue { i64, ptr } %13, 1
  %16 = trunc nuw nsw i64 %indvars.iv to i32
  %17 = tail call { i64, ptr } @jv_array_get(i64 %14, ptr %15, i32 noundef %16) #6
  %18 = extractvalue { i64, ptr } %17, 0
  %19 = extractvalue { i64, ptr } %17, 1
  store i64 %18, ptr %12, align 8
  %.sroa.45.0..sroa_idx = getelementptr inbounds nuw i8, ptr %12, i64 8
  store ptr %19, ptr %.sroa.45.0..sroa_idx, align 8, !tbaa !21
  %20 = getelementptr inbounds nuw i8, ptr %12, i64 16
  %21 = tail call { i64, ptr } @jv_copy(i64 %2, ptr %3) #6
  %22 = extractvalue { i64, ptr } %21, 0
  %23 = extractvalue { i64, ptr } %21, 1
  %24 = tail call { i64, ptr } @jv_array_get(i64 %22, ptr %23, i32 noundef %16) #6
  %25 = extractvalue { i64, ptr } %24, 0
  %26 = extractvalue { i64, ptr } %24, 1
  store i64 %25, ptr %20, align 8
  %.sroa.4.0..sroa_idx = getelementptr inbounds nuw i8, ptr %12, i64 24
  store ptr %26, ptr %.sroa.4.0..sroa_idx, align 8, !tbaa !21
  %27 = getelementptr inbounds nuw i8, ptr %12, i64 32
  store i32 %16, ptr %27, align 8, !tbaa !26
  %indvars.iv.next = add nuw nsw i64 %indvars.iv, 1
  %exitcond.not = icmp eq i64 %indvars.iv.next, %wide.trip.count
  br i1 %exitcond.not, label %._crit_edge, label %.lr.ph, !llvm.loop !30
}